
There are no discarded input sections

Memory Configuration

Name             Origin             Length             Attributes
*default*        0x00000000         0xffffffff

Linker script and memory map

LOAD /home/tobias/code/OSDev/build/kernel/asm/file.obj
LOAD /home/tobias/code/OSDev/build/kernel/asm/in_out.obj
LOAD /home/tobias/code/OSDev/build/kernel/c/disk.obj
LOAD /home/tobias/code/OSDev/build/kernel/c/fat.obj
LOAD /home/tobias/code/OSDev/build/kernel/c/io.obj
LOAD /home/tobias/code/OSDev/build/kernel/c/kernel.obj
LOAD /home/tobias/code/OSDev/build/kernel/c/memory.obj
LOAD /home/tobias/code/OSDev/build/kernel/c/stdio.obj
LOAD /home/tobias/code/OSDev/build/kernel/c/string.obj
LOAD /home/tobias/code/OSDev/build/kernel/c/arch/i686/isrs_gen.obj
LOAD /usr/lib/gcc/i686-elf/11.2.0/libgcc.a
                0x00100000                        phys = 0x100000
                0x00100000                        . = phys

.entry          0x00100000       0xde
                0x00100000                        __entry_start = .
 *(.entry)
 .entry         0x00100000       0xde /home/tobias/code/OSDev/build/kernel/c/kernel.obj
                0x00100000                start

.text           0x001000e0     0x11f9
                0x001000e0                        __text_start = .
 *(.text)
 .text          0x001000e0       0x7e /home/tobias/code/OSDev/build/kernel/asm/file.obj
                0x001000e0                x86_DiskRead
 *fill*         0x0010015e        0x2 
 .text          0x00100160       0x1d /home/tobias/code/OSDev/build/kernel/asm/in_out.obj
                0x00100160                i686_outb
                0x0010016b                i686_inb
                0x00100174                i686_Panic
                0x00100176                i686_EnableInterrupts
                0x00100178                i686_DisableInterrupts
                0x0010017a                crash_me
 .text          0x0010017d      0x114 /home/tobias/code/OSDev/build/kernel/c/disk.obj
                0x0010017d                lbaToChs
                0x0010020a                DiskRead
 .text          0x00100291      0x86e /home/tobias/code/OSDev/build/kernel/c/fat.obj
                0x00100291                FAT_ReadBS
                0x001002ae                FAT_ReadFat
                0x001002e2                FAT_cluster_to_lba
                0x00100303                FAT_CLOSE
                0x00100351                FAT_OpenEntry
                0x00100556                FAT_NextCluster
                0x001005a3                FAT_READ
                0x001007ee                FAT_READ_ENTRY
                0x0010080f                FAT_GetShortName
                0x00100908                FAT_FIND_FILE
                0x00100994                FAT_OPEN
 .text          0x00100aff       0x1b /home/tobias/code/OSDev/build/kernel/c/io.obj
                0x00100aff                i686_iowait
 .text          0x00100b1a        0x0 /home/tobias/code/OSDev/build/kernel/c/kernel.obj
 .text          0x00100b1a      0x11e /home/tobias/code/OSDev/build/kernel/c/memory.obj
                0x00100b1a                memcpy
                0x00100b6c                memset
                0x00100baf                memcmp
                0x00100c0f                segoffset_to_linear
 .text          0x00100c38      0x510 /home/tobias/code/OSDev/build/kernel/c/stdio.obj
                0x00100c38                putchr
                0x00100c67                putcolor
                0x00100c99                getchr
                0x00100cbb                getcolor
                0x00100ce0                clrscr
                0x00100d6e                setcursor
                0x00100ddf                scrollback
                0x00100ecd                putc
                0x00100ff2                puts
                0x00101021                int_to_string
                0x00101121                putn
 .text          0x00101148      0x191 /home/tobias/code/OSDev/build/kernel/c/string.obj
                0x00101148                strlen
                0x0010116c                strchr
                0x001011aa                strcpy
                0x001011fe                strcmp
                0x00101287                islower
                0x001012ad                toupper
 .text          0x001012d9        0x0 /home/tobias/code/OSDev/build/kernel/c/arch/i686/isrs_gen.obj

.data           0x001012dc        0x4
                0x001012dc                        __data_start = .
 *(.data)
 .data          0x001012dc        0x0 /home/tobias/code/OSDev/build/kernel/c/disk.obj
 .data          0x001012dc        0x0 /home/tobias/code/OSDev/build/kernel/c/fat.obj
 .data          0x001012dc        0x0 /home/tobias/code/OSDev/build/kernel/c/io.obj
 .data          0x001012dc        0x0 /home/tobias/code/OSDev/build/kernel/c/kernel.obj
 .data          0x001012dc        0x0 /home/tobias/code/OSDev/build/kernel/c/memory.obj
 .data          0x001012dc        0x4 /home/tobias/code/OSDev/build/kernel/c/stdio.obj
                0x001012dc                ScreenBuffer
 .data          0x001012e0        0x0 /home/tobias/code/OSDev/build/kernel/c/string.obj
 .data          0x001012e0        0x0 /home/tobias/code/OSDev/build/kernel/c/arch/i686/isrs_gen.obj

.rodata         0x001012e0       0xd9
                0x001012e0                        __rodata_start = .
 *(.rodata)
 .rodata        0x001012e0       0xa3 /home/tobias/code/OSDev/build/kernel/c/fat.obj
 *fill*         0x00101383        0x1 
 .rodata        0x00101384       0x2a /home/tobias/code/OSDev/build/kernel/c/kernel.obj
 *fill*         0x001013ae        0x2 
 .rodata        0x001013b0        0x9 /home/tobias/code/OSDev/build/kernel/c/stdio.obj
                0x001013b0                SCREEN_WIDTH
                0x001013b4                SCREEN_HEIGHT
                0x001013b8                DEFAULT_COLOR

.bss            0x001013bc       0x14
                0x001013bc                        __bss_start = .
 *(.bss)
 .bss           0x001013bc        0x0 /home/tobias/code/OSDev/build/kernel/c/disk.obj
 .bss           0x001013bc        0xc /home/tobias/code/OSDev/build/kernel/c/fat.obj
 .bss           0x001013c8        0x0 /home/tobias/code/OSDev/build/kernel/c/io.obj
 .bss           0x001013c8        0x0 /home/tobias/code/OSDev/build/kernel/c/kernel.obj
 .bss           0x001013c8        0x0 /home/tobias/code/OSDev/build/kernel/c/memory.obj
 .bss           0x001013c8        0x8 /home/tobias/code/OSDev/build/kernel/c/stdio.obj
                0x001013c8                ScreenX
                0x001013cc                ScreenY
 .bss           0x001013d0        0x0 /home/tobias/code/OSDev/build/kernel/c/string.obj
 .bss           0x001013d0        0x0 /home/tobias/code/OSDev/build/kernel/c/arch/i686/isrs_gen.obj
                0x001013d0                        __end = .
OUTPUT(/home/tobias/code/OSDev/build/kernel.bin binary)

.debug_info     0x00000000     0x1756
 .debug_info    0x00000000      0x1f6 /home/tobias/code/OSDev/build/kernel/c/disk.obj
 .debug_info    0x000001f6      0x97e /home/tobias/code/OSDev/build/kernel/c/fat.obj
 .debug_info    0x00000b74       0x9e /home/tobias/code/OSDev/build/kernel/c/io.obj
 .debug_info    0x00000c12      0x329 /home/tobias/code/OSDev/build/kernel/c/kernel.obj
 .debug_info    0x00000f3b      0x23e /home/tobias/code/OSDev/build/kernel/c/memory.obj
 .debug_info    0x00001179      0x416 /home/tobias/code/OSDev/build/kernel/c/stdio.obj
 .debug_info    0x0000158f      0x1c7 /home/tobias/code/OSDev/build/kernel/c/string.obj

.debug_abbrev   0x00000000      0x7d0
 .debug_abbrev  0x00000000      0x124 /home/tobias/code/OSDev/build/kernel/c/disk.obj
 .debug_abbrev  0x00000124      0x221 /home/tobias/code/OSDev/build/kernel/c/fat.obj
 .debug_abbrev  0x00000345       0x62 /home/tobias/code/OSDev/build/kernel/c/io.obj
 .debug_abbrev  0x000003a7      0x114 /home/tobias/code/OSDev/build/kernel/c/kernel.obj
 .debug_abbrev  0x000004bb       0xc7 /home/tobias/code/OSDev/build/kernel/c/memory.obj
 .debug_abbrev  0x00000582      0x173 /home/tobias/code/OSDev/build/kernel/c/stdio.obj
 .debug_abbrev  0x000006f5       0xdb /home/tobias/code/OSDev/build/kernel/c/string.obj

.debug_aranges  0x00000000       0xe0
 .debug_aranges
                0x00000000       0x20 /home/tobias/code/OSDev/build/kernel/c/disk.obj
 .debug_aranges
                0x00000020       0x20 /home/tobias/code/OSDev/build/kernel/c/fat.obj
 .debug_aranges
                0x00000040       0x20 /home/tobias/code/OSDev/build/kernel/c/io.obj
 .debug_aranges
                0x00000060       0x20 /home/tobias/code/OSDev/build/kernel/c/kernel.obj
 .debug_aranges
                0x00000080       0x20 /home/tobias/code/OSDev/build/kernel/c/memory.obj
 .debug_aranges
                0x000000a0       0x20 /home/tobias/code/OSDev/build/kernel/c/stdio.obj
 .debug_aranges
                0x000000c0       0x20 /home/tobias/code/OSDev/build/kernel/c/string.obj

.debug_line     0x00000000      0xa3b
 .debug_line    0x00000000       0xb5 /home/tobias/code/OSDev/build/kernel/c/disk.obj
 .debug_line    0x000000b5      0x3f1 /home/tobias/code/OSDev/build/kernel/c/fat.obj
 .debug_line    0x000004a6       0x56 /home/tobias/code/OSDev/build/kernel/c/io.obj
 .debug_line    0x000004fc       0x93 /home/tobias/code/OSDev/build/kernel/c/kernel.obj
 .debug_line    0x0000058f      0x100 /home/tobias/code/OSDev/build/kernel/c/memory.obj
 .debug_line    0x0000068f      0x274 /home/tobias/code/OSDev/build/kernel/c/stdio.obj
 .debug_line    0x00000903      0x138 /home/tobias/code/OSDev/build/kernel/c/string.obj
 .debug_line    0x00000a3b        0x0 /home/tobias/code/OSDev/build/kernel/c/arch/i686/isrs_gen.obj

.debug_str      0x00000000      0xdb9
 .debug_str     0x00000000      0x137 /home/tobias/code/OSDev/build/kernel/c/disk.obj
 .debug_str     0x00000137      0x530 /home/tobias/code/OSDev/build/kernel/c/fat.obj
 .debug_str     0x00000667       0xe9 /home/tobias/code/OSDev/build/kernel/c/io.obj
 .debug_str     0x00000750      0x1fa /home/tobias/code/OSDev/build/kernel/c/kernel.obj
 .debug_str     0x0000094a      0x151 /home/tobias/code/OSDev/build/kernel/c/memory.obj
 .debug_str     0x00000a9b      0x1bd /home/tobias/code/OSDev/build/kernel/c/stdio.obj
 .debug_str     0x00000c58      0x116 /home/tobias/code/OSDev/build/kernel/c/string.obj
 .debug_str     0x00000d6e       0x4b /home/tobias/code/OSDev/build/kernel/c/arch/i686/isrs_gen.obj

.debug_line_str
                0x00000000      0x36a
 .debug_line_str
                0x00000000       0x72 /home/tobias/code/OSDev/build/kernel/c/disk.obj
 .debug_line_str
                0x00000072       0x88 /home/tobias/code/OSDev/build/kernel/c/fat.obj
 .debug_line_str
                0x000000fa       0x63 /home/tobias/code/OSDev/build/kernel/c/io.obj
 .debug_line_str
                0x0000015d       0x95 /home/tobias/code/OSDev/build/kernel/c/kernel.obj
 .debug_line_str
                0x000001f2       0x6a /home/tobias/code/OSDev/build/kernel/c/memory.obj
 .debug_line_str
                0x0000025c       0x6c /home/tobias/code/OSDev/build/kernel/c/stdio.obj
 .debug_line_str
                0x000002c8       0x6a /home/tobias/code/OSDev/build/kernel/c/string.obj
 .debug_line_str
                0x00000332       0x38 /home/tobias/code/OSDev/build/kernel/c/arch/i686/isrs_gen.obj

.comment        0x00000000       0x98
 .comment       0x00000000       0x13 /home/tobias/code/OSDev/build/kernel/c/disk.obj
 .comment       0x00000013       0x13 /home/tobias/code/OSDev/build/kernel/c/fat.obj
 .comment       0x00000026       0x13 /home/tobias/code/OSDev/build/kernel/c/io.obj
 .comment       0x00000039       0x13 /home/tobias/code/OSDev/build/kernel/c/kernel.obj
 .comment       0x0000004c       0x13 /home/tobias/code/OSDev/build/kernel/c/memory.obj
 .comment       0x0000005f       0x13 /home/tobias/code/OSDev/build/kernel/c/stdio.obj
 .comment       0x00000072       0x13 /home/tobias/code/OSDev/build/kernel/c/string.obj
 .comment       0x00000085       0x13 /home/tobias/code/OSDev/build/kernel/c/arch/i686/isrs_gen.obj

.debug_frame    0x00000000      0x520
 .debug_frame   0x00000000       0x60 /home/tobias/code/OSDev/build/kernel/c/disk.obj
 .debug_frame   0x00000060      0x180 /home/tobias/code/OSDev/build/kernel/c/fat.obj
 .debug_frame   0x000001e0       0x34 /home/tobias/code/OSDev/build/kernel/c/io.obj
 .debug_frame   0x00000214       0x2c /home/tobias/code/OSDev/build/kernel/c/kernel.obj
 .debug_frame   0x00000240       0x94 /home/tobias/code/OSDev/build/kernel/c/memory.obj
 .debug_frame   0x000002d4      0x178 /home/tobias/code/OSDev/build/kernel/c/stdio.obj
 .debug_frame   0x0000044c       0xd4 /home/tobias/code/OSDev/build/kernel/c/string.obj

.debug_rnglists
                0x00000000       0x14
 .debug_rnglists
                0x00000000       0x14 /home/tobias/code/OSDev/build/kernel/c/kernel.obj
