
There are no discarded input sections

Memory Configuration

Name             Origin             Length             Attributes
*default*        0x00000000         0xffffffff

Linker script and memory map

LOAD /home/tobias/code/OSDev/build/stage2/asm/entry.obj
LOAD /home/tobias/code/OSDev/build/stage2/asm/x86.obj
LOAD /home/tobias/code/OSDev/build/stage2/c/bin.obj
LOAD /home/tobias/code/OSDev/build/stage2/c/disk.obj
LOAD /home/tobias/code/OSDev/build/stage2/c/fat.obj
LOAD /home/tobias/code/OSDev/build/stage2/c/main.obj
LOAD /home/tobias/code/OSDev/build/stage2/c/mbr.obj
LOAD /home/tobias/code/OSDev/build/stage2/c/memory.obj
LOAD /home/tobias/code/OSDev/build/stage2/c/stdio.obj
LOAD /home/tobias/code/OSDev/build/stage2/c/string.obj
LOAD /usr/lib/gcc/i686-elf/11.2.0/libgcc.a
                0x00000500                        phys = 0x500
                0x00000500                        . = phys

.entry          0x00000500       0xcc
                0x00000500                        __entry_start = .
 *(.entry)
 .entry         0x00000500       0xcc /home/tobias/code/OSDev/build/stage2/asm/entry.obj
                0x00000500                entry

.text           0x000005d0     0x1816
                0x000005d0                        __text_start = .
 *(.text)
 .text          0x000005d0      0x1a5 /home/tobias/code/OSDev/build/stage2/asm/x86.obj
                0x000005d0                x86_out
                0x000005db                x86_in
                0x000005e4                x86_Disk_GetDriveParams
                0x000006a7                x86_DiskReset
                0x000006f7                x86_DiskRead
 .text          0x00000775       0xa6 /home/tobias/code/OSDev/build/stage2/c/bin.obj
                0x00000775                BIN_Read
 .text          0x0000081b      0x191 /home/tobias/code/OSDev/build/stage2/c/disk.obj
                0x0000081b                DiskInit
                0x00000883                lbaToChs
                0x00000910                DiskRead
 .text          0x000009ac      0xb04 /home/tobias/code/OSDev/build/stage2/c/fat.obj
                0x000009ac                FAT_ReadBS
                0x000009c9                FAT_ReadFat
                0x000009fd                FAT_INIT
                0x00000c5e                FAT_cluster_to_lba
                0x00000c7f                FAT_CLOSE
                0x00000ccd                FAT_OpenEntry
                0x00000ed2                FAT_NextCluster
                0x00000f1f                FAT_READ
                0x0000116a                FAT_READ_ENTRY
                0x0000118b                FAT_GetShortName
                0x00001284                FAT_FIND_FILE
                0x00001345                FAT_OPEN
 .text          0x000014b0       0xcd /home/tobias/code/OSDev/build/stage2/c/main.obj
                0x000014b0                start
 .text          0x0000157d       0xaa /home/tobias/code/OSDev/build/stage2/c/mbr.obj
                0x0000157d                detectPartition
                0x000015f7                Part_ReadSectors
 .text          0x00001627      0x11e /home/tobias/code/OSDev/build/stage2/c/memory.obj
                0x00001627                memcpy
                0x00001679                memset
                0x000016bc                memcmp
                0x0000171c                segoffset_to_linear
 .text          0x00001745      0x510 /home/tobias/code/OSDev/build/stage2/c/stdio.obj
                0x00001745                putchr
                0x00001774                putcolor
                0x000017a6                getchr
                0x000017c8                getcolor
                0x000017ed                clrscr
                0x0000187b                setcursor
                0x000018ec                scrollback
                0x000019da                putc
                0x00001aff                puts
                0x00001b2e                int_to_string
                0x00001c2e                putn
 .text          0x00001c55      0x191 /home/tobias/code/OSDev/build/stage2/c/string.obj
                0x00001c55                strlen
                0x00001c79                strchr
                0x00001cb7                strcpy
                0x00001d0b                strcmp
                0x00001d94                islower
                0x00001dba                toupper

.data           0x00001de8        0xc
                0x00001de8                        __data_start = .
 *(.data)
 .data          0x00001de8        0x0 /home/tobias/code/OSDev/build/stage2/c/bin.obj
 .data          0x00001de8        0x0 /home/tobias/code/OSDev/build/stage2/c/disk.obj
 .data          0x00001de8        0x0 /home/tobias/code/OSDev/build/stage2/c/fat.obj
 .data          0x00001de8        0x8 /home/tobias/code/OSDev/build/stage2/c/main.obj
                0x00001de8                KernelLoadBuffer
                0x00001dec                Kernel
 .data          0x00001df0        0x0 /home/tobias/code/OSDev/build/stage2/c/mbr.obj
 .data          0x00001df0        0x0 /home/tobias/code/OSDev/build/stage2/c/memory.obj
 .data          0x00001df0        0x4 /home/tobias/code/OSDev/build/stage2/c/stdio.obj
                0x00001df0                ScreenBuffer
 .data          0x00001df4        0x0 /home/tobias/code/OSDev/build/stage2/c/string.obj

.rodata         0x00001df4      0x219
                0x00001df4                        __rodata_start = .
 *(.rodata)
 .rodata        0x00001df4       0x28 /home/tobias/code/OSDev/build/stage2/c/bin.obj
 .rodata        0x00001e1c      0x154 /home/tobias/code/OSDev/build/stage2/c/fat.obj
 .rodata        0x00001f70       0x91 /home/tobias/code/OSDev/build/stage2/c/main.obj
 *fill*         0x00002001        0x3 
 .rodata        0x00002004        0x9 /home/tobias/code/OSDev/build/stage2/c/stdio.obj
                0x00002004                SCREEN_WIDTH
                0x00002008                SCREEN_HEIGHT
                0x0000200c                DEFAULT_COLOR

.bss            0x00002010       0x20
                0x00002010                        __bss_start = .
 *(.bss)
 .bss           0x00002010        0x0 /home/tobias/code/OSDev/build/stage2/c/bin.obj
 .bss           0x00002010        0x0 /home/tobias/code/OSDev/build/stage2/c/disk.obj
 .bss           0x00002010        0xc /home/tobias/code/OSDev/build/stage2/c/fat.obj
 .bss           0x0000201c        0xc /home/tobias/code/OSDev/build/stage2/c/main.obj
                0x0000201c                bootParams
 .bss           0x00002028        0x0 /home/tobias/code/OSDev/build/stage2/c/mbr.obj
 .bss           0x00002028        0x0 /home/tobias/code/OSDev/build/stage2/c/memory.obj
 .bss           0x00002028        0x8 /home/tobias/code/OSDev/build/stage2/c/stdio.obj
                0x00002028                ScreenX
                0x0000202c                ScreenY
 .bss           0x00002030        0x0 /home/tobias/code/OSDev/build/stage2/c/string.obj
                0x00002030                        __end = .
OUTPUT(/home/tobias/code/OSDev/build/stage2.bin binary)

.debug_info     0x00000000     0x1c56
 .debug_info    0x00000000      0x259 /home/tobias/code/OSDev/build/stage2/c/bin.obj
 .debug_info    0x00000259      0x2a3 /home/tobias/code/OSDev/build/stage2/c/disk.obj
 .debug_info    0x000004fc      0xa0c /home/tobias/code/OSDev/build/stage2/c/fat.obj
 .debug_info    0x00000f08      0x2bf /home/tobias/code/OSDev/build/stage2/c/main.obj
 .debug_info    0x000011c7      0x274 /home/tobias/code/OSDev/build/stage2/c/mbr.obj
 .debug_info    0x0000143b      0x23e /home/tobias/code/OSDev/build/stage2/c/memory.obj
 .debug_info    0x00001679      0x416 /home/tobias/code/OSDev/build/stage2/c/stdio.obj
 .debug_info    0x00001a8f      0x1c7 /home/tobias/code/OSDev/build/stage2/c/string.obj

.debug_abbrev   0x00000000      0xa04
 .debug_abbrev  0x00000000       0xfe /home/tobias/code/OSDev/build/stage2/c/bin.obj
 .debug_abbrev  0x000000fe      0x140 /home/tobias/code/OSDev/build/stage2/c/disk.obj
 .debug_abbrev  0x0000023e      0x264 /home/tobias/code/OSDev/build/stage2/c/fat.obj
 .debug_abbrev  0x000004a2      0x137 /home/tobias/code/OSDev/build/stage2/c/main.obj
 .debug_abbrev  0x000005d9      0x116 /home/tobias/code/OSDev/build/stage2/c/mbr.obj
 .debug_abbrev  0x000006ef       0xc7 /home/tobias/code/OSDev/build/stage2/c/memory.obj
 .debug_abbrev  0x000007b6      0x173 /home/tobias/code/OSDev/build/stage2/c/stdio.obj
 .debug_abbrev  0x00000929       0xdb /home/tobias/code/OSDev/build/stage2/c/string.obj

.debug_aranges  0x00000000      0x100
 .debug_aranges
                0x00000000       0x20 /home/tobias/code/OSDev/build/stage2/c/bin.obj
 .debug_aranges
                0x00000020       0x20 /home/tobias/code/OSDev/build/stage2/c/disk.obj
 .debug_aranges
                0x00000040       0x20 /home/tobias/code/OSDev/build/stage2/c/fat.obj
 .debug_aranges
                0x00000060       0x20 /home/tobias/code/OSDev/build/stage2/c/main.obj
 .debug_aranges
                0x00000080       0x20 /home/tobias/code/OSDev/build/stage2/c/mbr.obj
 .debug_aranges
                0x000000a0       0x20 /home/tobias/code/OSDev/build/stage2/c/memory.obj
 .debug_aranges
                0x000000c0       0x20 /home/tobias/code/OSDev/build/stage2/c/stdio.obj
 .debug_aranges
                0x000000e0       0x20 /home/tobias/code/OSDev/build/stage2/c/string.obj

.debug_line     0x00000000      0xc44
 .debug_line    0x00000000       0x8b /home/tobias/code/OSDev/build/stage2/c/bin.obj
 .debug_line    0x0000008b       0xe4 /home/tobias/code/OSDev/build/stage2/c/disk.obj
 .debug_line    0x0000016f      0x4f2 /home/tobias/code/OSDev/build/stage2/c/fat.obj
 .debug_line    0x00000661       0x91 /home/tobias/code/OSDev/build/stage2/c/main.obj
 .debug_line    0x000006f2       0xa6 /home/tobias/code/OSDev/build/stage2/c/mbr.obj
 .debug_line    0x00000798      0x100 /home/tobias/code/OSDev/build/stage2/c/memory.obj
 .debug_line    0x00000898      0x274 /home/tobias/code/OSDev/build/stage2/c/stdio.obj
 .debug_line    0x00000b0c      0x138 /home/tobias/code/OSDev/build/stage2/c/string.obj

.debug_str      0x00000000     0x1032
 .debug_str     0x00000000      0x192 /home/tobias/code/OSDev/build/stage2/c/bin.obj
 .debug_str     0x00000192      0x175 /home/tobias/code/OSDev/build/stage2/c/disk.obj
 .debug_str     0x00000307      0x56e /home/tobias/code/OSDev/build/stage2/c/fat.obj
 .debug_str     0x00000875      0x1f5 /home/tobias/code/OSDev/build/stage2/c/main.obj
 .debug_str     0x00000a6a      0x1a6 /home/tobias/code/OSDev/build/stage2/c/mbr.obj
 .debug_str     0x00000c10      0x151 /home/tobias/code/OSDev/build/stage2/c/memory.obj
 .debug_str     0x00000d61      0x1bb /home/tobias/code/OSDev/build/stage2/c/stdio.obj
 .debug_str     0x00000f1c      0x116 /home/tobias/code/OSDev/build/stage2/c/string.obj

.debug_line_str
                0x00000000      0x41c
 .debug_line_str
                0x00000000       0x8b /home/tobias/code/OSDev/build/stage2/c/bin.obj
 .debug_line_str
                0x0000008b       0x7d /home/tobias/code/OSDev/build/stage2/c/disk.obj
 .debug_line_str
                0x00000108       0x94 /home/tobias/code/OSDev/build/stage2/c/fat.obj
 .debug_line_str
                0x0000019c       0x98 /home/tobias/code/OSDev/build/stage2/c/main.obj
 .debug_line_str
                0x00000234       0x83 /home/tobias/code/OSDev/build/stage2/c/mbr.obj
 .debug_line_str
                0x000002b7       0x76 /home/tobias/code/OSDev/build/stage2/c/memory.obj
 .debug_line_str
                0x0000032d       0x79 /home/tobias/code/OSDev/build/stage2/c/stdio.obj
 .debug_line_str
                0x000003a6       0x76 /home/tobias/code/OSDev/build/stage2/c/string.obj

.comment        0x00000000       0x98
 .comment       0x00000000       0x13 /home/tobias/code/OSDev/build/stage2/c/bin.obj
 .comment       0x00000013       0x13 /home/tobias/code/OSDev/build/stage2/c/disk.obj
 .comment       0x00000026       0x13 /home/tobias/code/OSDev/build/stage2/c/fat.obj
 .comment       0x00000039       0x13 /home/tobias/code/OSDev/build/stage2/c/main.obj
 .comment       0x0000004c       0x13 /home/tobias/code/OSDev/build/stage2/c/mbr.obj
 .comment       0x0000005f       0x13 /home/tobias/code/OSDev/build/stage2/c/memory.obj
 .comment       0x00000072       0x13 /home/tobias/code/OSDev/build/stage2/c/stdio.obj
 .comment       0x00000085       0x13 /home/tobias/code/OSDev/build/stage2/c/string.obj

.debug_frame    0x00000000      0x5b8
 .debug_frame   0x00000000       0x34 /home/tobias/code/OSDev/build/stage2/c/bin.obj
 .debug_frame   0x00000034       0x80 /home/tobias/code/OSDev/build/stage2/c/disk.obj
 .debug_frame   0x000000b4      0x1a4 /home/tobias/code/OSDev/build/stage2/c/fat.obj
 .debug_frame   0x00000258       0x2c /home/tobias/code/OSDev/build/stage2/c/main.obj
 .debug_frame   0x00000284       0x54 /home/tobias/code/OSDev/build/stage2/c/mbr.obj
 .debug_frame   0x000002d8       0x94 /home/tobias/code/OSDev/build/stage2/c/memory.obj
 .debug_frame   0x0000036c      0x178 /home/tobias/code/OSDev/build/stage2/c/stdio.obj
 .debug_frame   0x000004e4       0xd4 /home/tobias/code/OSDev/build/stage2/c/string.obj
